Archive member included to satisfy reference by file (symbol)

lib/libstm32f0_periph.a(stm32f0xx_gpio.o)
                              build/main.o (GPIO_Init)
lib/libstm32f0_periph.a(stm32f0xx_misc.o)
                              build/main.o (NVIC_Init)
lib/libstm32f0_periph.a(stm32f0xx_rcc.o)
                              build/main.o (RCC_GetClocksFreq)
lib/libstm32f0_periph.a(stm32f0xx_usart.o)
                              build/main.o (USART_Init)
/Users/caseybrittain/gcc-arm-none-eabi-8-2018-q4-major/bin/../lib/gcc/arm-none-eabi/8.2.1/thumb/v6-m/nofp/libgcc.a(_udivsi3.o)
                              build/system_stm32f0xx.o (__aeabi_uidiv)
/Users/caseybrittain/gcc-arm-none-eabi-8-2018-q4-major/bin/../lib/gcc/arm-none-eabi/8.2.1/thumb/v6-m/nofp/libgcc.a(_divsi3.o)
                              lib/libstm32f0_periph.a(stm32f0xx_rcc.o) (__aeabi_idiv)
/Users/caseybrittain/gcc-arm-none-eabi-8-2018-q4-major/bin/../lib/gcc/arm-none-eabi/8.2.1/thumb/v6-m/nofp/libgcc.a(_dvmd_tls.o)
                              /Users/caseybrittain/gcc-arm-none-eabi-8-2018-q4-major/bin/../lib/gcc/arm-none-eabi/8.2.1/thumb/v6-m/nofp/libgcc.a(_udivsi3.o) (__aeabi_idiv0)
/Users/caseybrittain/gcc-arm-none-eabi-8-2018-q4-major/bin/../lib/gcc/arm-none-eabi/8.2.1/../../../../arm-none-eabi/lib/thumb/v6-m/nofp/libg_nano.a(lib_a-memcpy-stub.o)
                              build/main.o (memcpy)

Allocating common symbols
Common symbol       size              file

multiplier          0x4               build/main.o
rxBuffer            0x104             build/main.o
_multiplier         0x4               build/main.o

Discarded input sections

 .text          0x0000000000000000        0x0 build/system_stm32f0xx.o
 .data          0x0000000000000000        0x0 build/system_stm32f0xx.o
 .bss           0x0000000000000000        0x0 build/system_stm32f0xx.o
 .data.SystemCoreClock
                0x0000000000000000        0x4 build/system_stm32f0xx.o
 .data.AHBPrescTable
                0x0000000000000000       0x10 build/system_stm32f0xx.o
 .text.SystemCoreClockUpdate
                0x0000000000000000       0xe4 build/system_stm32f0xx.o
 .text          0x0000000000000000        0x0 build/stm32f0xx_it.o
 .data          0x0000000000000000        0x0 build/stm32f0xx_it.o
 .bss           0x0000000000000000        0x0 build/stm32f0xx_it.o
 .text          0x0000000000000000        0x0 build/main.o
 .data          0x0000000000000000        0x0 build/main.o
 .bss           0x0000000000000000        0x0 build/main.o
 .text.gpio_configure_interrupt
                0x0000000000000000       0x94 build/main.o
 .text.gpio_enable_interrupt
                0x0000000000000000       0x40 build/main.o
 .text.gpio_clear_interrupt
                0x0000000000000000       0x34 build/main.o
 .text.TM_DelayMicros
                0x0000000000000000       0x2c build/main.o
 .bss.key_pressed
                0x0000000000000000        0x4 build/main.o
 .text          0x0000000000000000       0x14 build/startup_stm32f0xx.o
 .data          0x0000000000000000        0x0 build/startup_stm32f0xx.o
 .bss           0x0000000000000000        0x0 build/startup_stm32f0xx.o
 .text          0x0000000000000000        0xa build/delay.o
 .data          0x0000000000000000        0x0 build/delay.o
 .bss           0x0000000000000000        0x0 build/delay.o
 .debug_line    0x0000000000000000       0x3f build/delay.o
 .debug_info    0x0000000000000000       0x26 build/delay.o
 .debug_abbrev  0x0000000000000000       0x14 build/delay.o
 .debug_aranges
                0x0000000000000000       0x20 build/delay.o
 .debug_str     0x0000000000000000       0x38 build/delay.o
 .ARM.attributes
                0x0000000000000000       0x1c build/delay.o
 .text          0x0000000000000000        0x0 lib/libstm32f0_periph.a(stm32f0xx_gpio.o)
 .data          0x0000000000000000        0x0 lib/libstm32f0_periph.a(stm32f0xx_gpio.o)
 .bss           0x0000000000000000        0x0 lib/libstm32f0_periph.a(stm32f0xx_gpio.o)
 .text.GPIO_DeInit
                0x0000000000000000       0xa4 lib/libstm32f0_periph.a(stm32f0xx_gpio.o)
 .text.GPIO_StructInit
                0x0000000000000000       0x10 lib/libstm32f0_periph.a(stm32f0xx_gpio.o)
 .text.GPIO_PinLockConfig
                0x0000000000000000       0x24 lib/libstm32f0_periph.a(stm32f0xx_gpio.o)
 .text.GPIO_ReadInputDataBit
                0x0000000000000000        0xc lib/libstm32f0_periph.a(stm32f0xx_gpio.o)
 .text.GPIO_ReadInputData
                0x0000000000000000        0x8 lib/libstm32f0_periph.a(stm32f0xx_gpio.o)
 .text.GPIO_ReadOutputDataBit
                0x0000000000000000        0xc lib/libstm32f0_periph.a(stm32f0xx_gpio.o)
 .text.GPIO_ReadOutputData
                0x0000000000000000        0x8 lib/libstm32f0_periph.a(stm32f0xx_gpio.o)
 .text.GPIO_SetBits
                0x0000000000000000        0x4 lib/libstm32f0_periph.a(stm32f0xx_gpio.o)
 .text.GPIO_ResetBits
                0x0000000000000000        0x4 lib/libstm32f0_periph.a(stm32f0xx_gpio.o)
 .text.GPIO_WriteBit
                0x0000000000000000        0xc lib/libstm32f0_periph.a(stm32f0xx_gpio.o)
 .text.GPIO_Write
                0x0000000000000000        0x4 lib/libstm32f0_periph.a(stm32f0xx_gpio.o)
 .text          0x0000000000000000        0x0 lib/libstm32f0_periph.a(stm32f0xx_misc.o)
 .data          0x0000000000000000        0x0 lib/libstm32f0_periph.a(stm32f0xx_misc.o)
 .bss           0x0000000000000000        0x0 lib/libstm32f0_periph.a(stm32f0xx_misc.o)
 .text.NVIC_SystemLPConfig
                0x0000000000000000       0x18 lib/libstm32f0_periph.a(stm32f0xx_misc.o)
 .text.SysTick_CLKSourceConfig
                0x0000000000000000       0x1c lib/libstm32f0_periph.a(stm32f0xx_misc.o)
 .text          0x0000000000000000        0x0 lib/libstm32f0_periph.a(stm32f0xx_rcc.o)
 .data          0x0000000000000000        0x0 lib/libstm32f0_periph.a(stm32f0xx_rcc.o)
 .bss           0x0000000000000000        0x0 lib/libstm32f0_periph.a(stm32f0xx_rcc.o)
 .text.RCC_DeInit
                0x0000000000000000       0x60 lib/libstm32f0_periph.a(stm32f0xx_rcc.o)
 .text.RCC_HSEConfig
                0x0000000000000000       0x10 lib/libstm32f0_periph.a(stm32f0xx_rcc.o)
 .text.RCC_WaitForHSEStartUp
                0x0000000000000000       0x3c lib/libstm32f0_periph.a(stm32f0xx_rcc.o)
 .text.RCC_AdjustHSICalibrationValue
                0x0000000000000000       0x14 lib/libstm32f0_periph.a(stm32f0xx_rcc.o)
 .text.RCC_HSICmd
                0x0000000000000000       0x1c lib/libstm32f0_periph.a(stm32f0xx_rcc.o)
 .text.RCC_AdjustHSI14CalibrationValue
                0x0000000000000000       0x14 lib/libstm32f0_periph.a(stm32f0xx_rcc.o)
 .text.RCC_HSI14Cmd
                0x0000000000000000       0x1c lib/libstm32f0_periph.a(stm32f0xx_rcc.o)
 .text.RCC_HSI14ADCRequestCmd
                0x0000000000000000       0x1c lib/libstm32f0_periph.a(stm32f0xx_rcc.o)
 .text.RCC_LSEConfig
                0x0000000000000000       0x20 lib/libstm32f0_periph.a(stm32f0xx_rcc.o)
 .text.RCC_LSEDriveConfig
                0x0000000000000000       0x18 lib/libstm32f0_periph.a(stm32f0xx_rcc.o)
 .text.RCC_LSICmd
                0x0000000000000000       0x1c lib/libstm32f0_periph.a(stm32f0xx_rcc.o)
 .text.RCC_PLLConfig
                0x0000000000000000       0x20 lib/libstm32f0_periph.a(stm32f0xx_rcc.o)
 .text.RCC_PLLCmd
                0x0000000000000000       0x24 lib/libstm32f0_periph.a(stm32f0xx_rcc.o)
 .text.RCC_PREDIV1Config
                0x0000000000000000       0x14 lib/libstm32f0_periph.a(stm32f0xx_rcc.o)
 .text.RCC_ClockSecuritySystemCmd
                0x0000000000000000       0x24 lib/libstm32f0_periph.a(stm32f0xx_rcc.o)
 .text.RCC_MCOConfig
                0x0000000000000000        0xc lib/libstm32f0_periph.a(stm32f0xx_rcc.o)
 .text.RCC_SYSCLKConfig
                0x0000000000000000       0x14 lib/libstm32f0_periph.a(stm32f0xx_rcc.o)
 .text.RCC_GetSYSCLKSource
                0x0000000000000000       0x10 lib/libstm32f0_periph.a(stm32f0xx_rcc.o)
 .text.RCC_HCLKConfig
                0x0000000000000000       0x14 lib/libstm32f0_periph.a(stm32f0xx_rcc.o)
 .text.RCC_PCLKConfig
                0x0000000000000000       0x18 lib/libstm32f0_periph.a(stm32f0xx_rcc.o)
 .text.RCC_ADCCLKConfig
                0x0000000000000000       0x34 lib/libstm32f0_periph.a(stm32f0xx_rcc.o)
 .text.RCC_CECCLKConfig
                0x0000000000000000       0x18 lib/libstm32f0_periph.a(stm32f0xx_rcc.o)
 .text.RCC_I2CCLKConfig
                0x0000000000000000       0x18 lib/libstm32f0_periph.a(stm32f0xx_rcc.o)
 .text.RCC_USARTCLKConfig
                0x0000000000000000       0x18 lib/libstm32f0_periph.a(stm32f0xx_rcc.o)
 .text.RCC_RTCCLKConfig
                0x0000000000000000       0x10 lib/libstm32f0_periph.a(stm32f0xx_rcc.o)
 .text.RCC_RTCCLKCmd
                0x0000000000000000       0x24 lib/libstm32f0_periph.a(stm32f0xx_rcc.o)
 .text.RCC_BackupResetCmd
                0x0000000000000000       0x24 lib/libstm32f0_periph.a(stm32f0xx_rcc.o)
 .text.RCC_APB1PeriphClockCmd
                0x0000000000000000       0x18 lib/libstm32f0_periph.a(stm32f0xx_rcc.o)
 .text.RCC_AHBPeriphResetCmd
                0x0000000000000000       0x18 lib/libstm32f0_periph.a(stm32f0xx_rcc.o)
 .text.RCC_APB2PeriphResetCmd
                0x0000000000000000       0x18 lib/libstm32f0_periph.a(stm32f0xx_rcc.o)
 .text.RCC_APB1PeriphResetCmd
                0x0000000000000000       0x18 lib/libstm32f0_periph.a(stm32f0xx_rcc.o)
 .text.RCC_ITConfig
                0x0000000000000000       0x18 lib/libstm32f0_periph.a(stm32f0xx_rcc.o)
 .text.RCC_GetFlagStatus
                0x0000000000000000       0x34 lib/libstm32f0_periph.a(stm32f0xx_rcc.o)
 .text.RCC_ClearFlag
                0x0000000000000000       0x14 lib/libstm32f0_periph.a(stm32f0xx_rcc.o)
 .text.RCC_GetITStatus
                0x0000000000000000       0x14 lib/libstm32f0_periph.a(stm32f0xx_rcc.o)
 .text.RCC_ClearITPendingBit
                0x0000000000000000        0xc lib/libstm32f0_periph.a(stm32f0xx_rcc.o)
 .text          0x0000000000000000        0x0 lib/libstm32f0_periph.a(stm32f0xx_usart.o)
 .data          0x0000000000000000        0x0 lib/libstm32f0_periph.a(stm32f0xx_usart.o)
 .bss           0x0000000000000000        0x0 lib/libstm32f0_periph.a(stm32f0xx_usart.o)
 .text.USART_DeInit
                0x0000000000000000       0x44 lib/libstm32f0_periph.a(stm32f0xx_usart.o)
 .text.USART_StructInit
                0x0000000000000000       0x18 lib/libstm32f0_periph.a(stm32f0xx_usart.o)
 .text.USART_ClockInit
                0x0000000000000000       0x20 lib/libstm32f0_periph.a(stm32f0xx_usart.o)
 .text.USART_ClockStructInit
                0x0000000000000000        0xc lib/libstm32f0_periph.a(stm32f0xx_usart.o)
 .text.USART_DirectionModeCmd
                0x0000000000000000       0x14 lib/libstm32f0_periph.a(stm32f0xx_usart.o)
 .text.USART_OverSampling8Cmd
                0x0000000000000000       0x20 lib/libstm32f0_periph.a(stm32f0xx_usart.o)
 .text.USART_OneBitMethodCmd
                0x0000000000000000       0x20 lib/libstm32f0_periph.a(stm32f0xx_usart.o)
 .text.USART_MSBFirstCmd
                0x0000000000000000       0x20 lib/libstm32f0_periph.a(stm32f0xx_usart.o)
 .text.USART_DataInvCmd
                0x0000000000000000       0x20 lib/libstm32f0_periph.a(stm32f0xx_usart.o)
 .text.USART_InvPinCmd
                0x0000000000000000       0x14 lib/libstm32f0_periph.a(stm32f0xx_usart.o)
 .text.USART_SWAPPinCmd
                0x0000000000000000       0x20 lib/libstm32f0_periph.a(stm32f0xx_usart.o)
 .text.USART_ReceiverTimeOutCmd
                0x0000000000000000       0x20 lib/libstm32f0_periph.a(stm32f0xx_usart.o)
 .text.USART_SetReceiverTimeOut
                0x0000000000000000       0x10 lib/libstm32f0_periph.a(stm32f0xx_usart.o)
 .text.USART_SetPrescaler
                0x0000000000000000       0x10 lib/libstm32f0_periph.a(stm32f0xx_usart.o)
 .text.USART_STOPModeCmd
                0x0000000000000000       0x14 lib/libstm32f0_periph.a(stm32f0xx_usart.o)
 .text.USART_StopModeWakeUpSourceConfig
                0x0000000000000000       0x14 lib/libstm32f0_periph.a(stm32f0xx_usart.o)
 .text.USART_AutoBaudRateCmd
                0x0000000000000000       0x20 lib/libstm32f0_periph.a(stm32f0xx_usart.o)
 .text.USART_AutoBaudRateConfig
                0x0000000000000000       0x14 lib/libstm32f0_periph.a(stm32f0xx_usart.o)
 .text.USART_SetAddress
                0x0000000000000000       0x14 lib/libstm32f0_periph.a(stm32f0xx_usart.o)
 .text.USART_MuteModeCmd
                0x0000000000000000       0x20 lib/libstm32f0_periph.a(stm32f0xx_usart.o)
 .text.USART_MuteModeWakeUpConfig
                0x0000000000000000       0x14 lib/libstm32f0_periph.a(stm32f0xx_usart.o)
 .text.USART_AddressDetectionConfig
                0x0000000000000000       0x10 lib/libstm32f0_periph.a(stm32f0xx_usart.o)
 .text.USART_LINBreakDetectLengthConfig
                0x0000000000000000       0x10 lib/libstm32f0_periph.a(stm32f0xx_usart.o)
 .text.USART_LINCmd
                0x0000000000000000       0x20 lib/libstm32f0_periph.a(stm32f0xx_usart.o)
 .text.USART_HalfDuplexCmd
                0x0000000000000000       0x14 lib/libstm32f0_periph.a(stm32f0xx_usart.o)
 .text.USART_SetGuardTime
                0x0000000000000000       0x14 lib/libstm32f0_periph.a(stm32f0xx_usart.o)
 .text.USART_SmartCardCmd
                0x0000000000000000       0x14 lib/libstm32f0_periph.a(stm32f0xx_usart.o)
 .text.USART_SmartCardNACKCmd
                0x0000000000000000       0x14 lib/libstm32f0_periph.a(stm32f0xx_usart.o)
 .text.USART_SetAutoRetryCount
                0x0000000000000000       0x18 lib/libstm32f0_periph.a(stm32f0xx_usart.o)
 .text.USART_SetBlockLength
                0x0000000000000000       0x14 lib/libstm32f0_periph.a(stm32f0xx_usart.o)
 .text.USART_IrDAConfig
                0x0000000000000000       0x10 lib/libstm32f0_periph.a(stm32f0xx_usart.o)
 .text.USART_IrDACmd
                0x0000000000000000       0x14 lib/libstm32f0_periph.a(stm32f0xx_usart.o)
 .text.USART_DECmd
                0x0000000000000000       0x20 lib/libstm32f0_periph.a(stm32f0xx_usart.o)
 .text.USART_DEPolarityConfig
                0x0000000000000000       0x14 lib/libstm32f0_periph.a(stm32f0xx_usart.o)
 .text.USART_SetDEAssertionTime
                0x0000000000000000       0x18 lib/libstm32f0_periph.a(stm32f0xx_usart.o)
 .text.USART_SetDEDeassertionTime
                0x0000000000000000       0x18 lib/libstm32f0_periph.a(stm32f0xx_usart.o)
 .text.USART_DMACmd
                0x0000000000000000       0x14 lib/libstm32f0_periph.a(stm32f0xx_usart.o)
 .text.USART_DMAReceptionErrorConfig
                0x0000000000000000       0x14 lib/libstm32f0_periph.a(stm32f0xx_usart.o)
 .text.USART_RequestCmd
                0x0000000000000000       0x14 lib/libstm32f0_periph.a(stm32f0xx_usart.o)
 .text.USART_OverrunDetectionConfig
                0x0000000000000000       0x14 lib/libstm32f0_periph.a(stm32f0xx_usart.o)
 .text.USART_ClearITPendingBit
                0x0000000000000000        0xc lib/libstm32f0_periph.a(stm32f0xx_usart.o)
 .data          0x0000000000000000        0x0 /Users/caseybrittain/gcc-arm-none-eabi-8-2018-q4-major/bin/../lib/gcc/arm-none-eabi/8.2.1/thumb/v6-m/nofp/libgcc.a(_udivsi3.o)
 .bss           0x0000000000000000        0x0 /Users/caseybrittain/gcc-arm-none-eabi-8-2018-q4-major/bin/../lib/gcc/arm-none-eabi/8.2.1/thumb/v6-m/nofp/libgcc.a(_udivsi3.o)
 .text          0x0000000000000000      0x1d4 /Users/caseybrittain/gcc-arm-none-eabi-8-2018-q4-major/bin/../lib/gcc/arm-none-eabi/8.2.1/thumb/v6-m/nofp/libgcc.a(_divsi3.o)
 .data          0x0000000000000000        0x0 /Users/caseybrittain/gcc-arm-none-eabi-8-2018-q4-major/bin/../lib/gcc/arm-none-eabi/8.2.1/thumb/v6-m/nofp/libgcc.a(_divsi3.o)
 .bss           0x0000000000000000        0x0 /Users/caseybrittain/gcc-arm-none-eabi-8-2018-q4-major/bin/../lib/gcc/arm-none-eabi/8.2.1/thumb/v6-m/nofp/libgcc.a(_divsi3.o)
 .debug_frame   0x0000000000000000       0x20 /Users/caseybrittain/gcc-arm-none-eabi-8-2018-q4-major/bin/../lib/gcc/arm-none-eabi/8.2.1/thumb/v6-m/nofp/libgcc.a(_divsi3.o)
 .ARM.attributes
                0x0000000000000000       0x1e /Users/caseybrittain/gcc-arm-none-eabi-8-2018-q4-major/bin/../lib/gcc/arm-none-eabi/8.2.1/thumb/v6-m/nofp/libgcc.a(_divsi3.o)
 .data          0x0000000000000000        0x0 /Users/caseybrittain/gcc-arm-none-eabi-8-2018-q4-major/bin/../lib/gcc/arm-none-eabi/8.2.1/thumb/v6-m/nofp/libgcc.a(_dvmd_tls.o)
 .bss           0x0000000000000000        0x0 /Users/caseybrittain/gcc-arm-none-eabi-8-2018-q4-major/bin/../lib/gcc/arm-none-eabi/8.2.1/thumb/v6-m/nofp/libgcc.a(_dvmd_tls.o)
 .text          0x0000000000000000        0x0 /Users/caseybrittain/gcc-arm-none-eabi-8-2018-q4-major/bin/../lib/gcc/arm-none-eabi/8.2.1/../../../../arm-none-eabi/lib/thumb/v6-m/nofp/libg_nano.a(lib_a-memcpy-stub.o)
 .data          0x0000000000000000        0x0 /Users/caseybrittain/gcc-arm-none-eabi-8-2018-q4-major/bin/../lib/gcc/arm-none-eabi/8.2.1/../../../../arm-none-eabi/lib/thumb/v6-m/nofp/libg_nano.a(lib_a-memcpy-stub.o)
 .bss           0x0000000000000000        0x0 /Users/caseybrittain/gcc-arm-none-eabi-8-2018-q4-major/bin/../lib/gcc/arm-none-eabi/8.2.1/../../../../arm-none-eabi/lib/thumb/v6-m/nofp/libg_nano.a(lib_a-memcpy-stub.o)

Memory Configuration

Name             Origin             Length             Attributes
RAM              0x0000000020000000 0x0000000000001000 xrw
ROM              0x0000000008000000 0x0000000000004000 xr
*default*        0x0000000000000000 0xffffffffffffffff

Linker script and memory map

LOAD /Users/caseybrittain/gcc-arm-none-eabi-8-2018-q4-major/bin/../lib/gcc/arm-none-eabi/8.2.1/../../../../arm-none-eabi/lib/thumb/v6-m/nofp/librdimon_nano.a
LOAD build/system_stm32f0xx.o
LOAD build/stm32f0xx_it.o
LOAD build/main.o
LOAD build/startup_stm32f0xx.o
LOAD build/delay.o
LOAD lib/libstm32f0_periph.a
START GROUP
LOAD /Users/caseybrittain/gcc-arm-none-eabi-8-2018-q4-major/bin/../lib/gcc/arm-none-eabi/8.2.1/thumb/v6-m/nofp/libgcc.a
LOAD /Users/caseybrittain/gcc-arm-none-eabi-8-2018-q4-major/bin/../lib/gcc/arm-none-eabi/8.2.1/../../../../arm-none-eabi/lib/thumb/v6-m/nofp/libg_nano.a
LOAD /Users/caseybrittain/gcc-arm-none-eabi-8-2018-q4-major/bin/../lib/gcc/arm-none-eabi/8.2.1/../../../../arm-none-eabi/lib/thumb/v6-m/nofp/libc_nano.a
END GROUP
START GROUP
LOAD /Users/caseybrittain/gcc-arm-none-eabi-8-2018-q4-major/bin/../lib/gcc/arm-none-eabi/8.2.1/thumb/v6-m/nofp/libgcc.a
LOAD /Users/caseybrittain/gcc-arm-none-eabi-8-2018-q4-major/bin/../lib/gcc/arm-none-eabi/8.2.1/../../../../arm-none-eabi/lib/thumb/v6-m/nofp/libc_nano.a
LOAD /Users/caseybrittain/gcc-arm-none-eabi-8-2018-q4-major/bin/../lib/gcc/arm-none-eabi/8.2.1/../../../../arm-none-eabi/lib/thumb/v6-m/nofp/libnosys.a
END GROUP
START GROUP
LOAD /Users/caseybrittain/gcc-arm-none-eabi-8-2018-q4-major/bin/../lib/gcc/arm-none-eabi/8.2.1/thumb/v6-m/nofp/libgcc.a
LOAD /Users/caseybrittain/gcc-arm-none-eabi-8-2018-q4-major/bin/../lib/gcc/arm-none-eabi/8.2.1/../../../../arm-none-eabi/lib/thumb/v6-m/nofp/libc_nano.a
LOAD /Users/caseybrittain/gcc-arm-none-eabi-8-2018-q4-major/bin/../lib/gcc/arm-none-eabi/8.2.1/../../../../arm-none-eabi/lib/thumb/v6-m/nofp/librdimon_nano.a
END GROUP
START GROUP
LOAD /Users/caseybrittain/gcc-arm-none-eabi-8-2018-q4-major/bin/../lib/gcc/arm-none-eabi/8.2.1/thumb/v6-m/nofp/libgcc.a
LOAD /Users/caseybrittain/gcc-arm-none-eabi-8-2018-q4-major/bin/../lib/gcc/arm-none-eabi/8.2.1/../../../../arm-none-eabi/lib/thumb/v6-m/nofp/libc_nano.a
LOAD /Users/caseybrittain/gcc-arm-none-eabi-8-2018-q4-major/bin/../lib/gcc/arm-none-eabi/8.2.1/../../../../arm-none-eabi/lib/thumb/v6-m/nofp/librdimon_nano.a
LOAD /Users/caseybrittain/gcc-arm-none-eabi-8-2018-q4-major/bin/../lib/gcc/arm-none-eabi/8.2.1/../../../../arm-none-eabi/lib/thumb/v6-m/nofp/libnosys.a
END GROUP
                0x0000000020001000                _estack = 0x20001000
                0x0000000000000000                _Min_Heap_Size = 0x0
                0x0000000000000400                _Min_Stack_Size = 0x400

.isr_vector     0x0000000008000000       0xc4
                0x0000000008000000                . = ALIGN (0x4)
 *(.isr_vector)
 .isr_vector    0x0000000008000000       0xc4 build/startup_stm32f0xx.o
                0x0000000008000000                g_pfnVectors
                0x00000000080000c4                . = ALIGN (0x4)

.text           0x00000000080000c4      0xa68
                0x00000000080000c4                . = ALIGN (0x4)
 *(.text)
 .text          0x00000000080000c4      0x114 /Users/caseybrittain/gcc-arm-none-eabi-8-2018-q4-major/bin/../lib/gcc/arm-none-eabi/8.2.1/thumb/v6-m/nofp/libgcc.a(_udivsi3.o)
                0x00000000080000c4                __udivsi3
                0x00000000080000c4                __aeabi_uidiv
                0x00000000080001d0                __aeabi_uidivmod
 .text          0x00000000080001d8        0x4 /Users/caseybrittain/gcc-arm-none-eabi-8-2018-q4-major/bin/../lib/gcc/arm-none-eabi/8.2.1/thumb/v6-m/nofp/libgcc.a(_dvmd_tls.o)
                0x00000000080001d8                __aeabi_ldiv0
                0x00000000080001d8                __aeabi_idiv0
 *(.text*)
 .text.SystemInit
                0x00000000080001dc       0x8c build/system_stm32f0xx.o
                0x00000000080001dc                SystemInit
 .text.SetSysClock
                0x0000000008000268       0xe0 build/system_stm32f0xx.o
 .text.NMI_Handler
                0x0000000008000348        0xa build/stm32f0xx_it.o
                0x0000000008000348                NMI_Handler
 .text.HardFault_Handler
                0x0000000008000352        0x6 build/stm32f0xx_it.o
                0x0000000008000352                HardFault_Handler
 .text.SVC_Handler
                0x0000000008000358        0xa build/stm32f0xx_it.o
                0x0000000008000358                SVC_Handler
 .text.PendSV_Handler
                0x0000000008000362        0xa build/stm32f0xx_it.o
                0x0000000008000362                PendSV_Handler
 .text.SysTick_Handler
                0x000000000800036c        0xa build/stm32f0xx_it.o
                0x000000000800036c                SysTick_Handler
 *fill*         0x0000000008000376        0x2 
 .text.NVIC_EnableIRQ
                0x0000000008000378       0x2c build/main.o
 .text.TM_Delay_Init
                0x00000000080003a4       0x34 build/main.o
                0x00000000080003a4                TM_Delay_Init
 .text.TM_DelayMillis
                0x00000000080003d8       0x38 build/main.o
                0x00000000080003d8                TM_DelayMillis
 .text.main     0x0000000008000410       0x28 build/main.o
                0x0000000008000410                main
 .text.USART1_IRQHandler
                0x0000000008000438       0x70 build/main.o
                0x0000000008000438                USART1_IRQHandler
 .text.USART1_Init
                0x00000000080004a8       0xe8 build/main.o
                0x00000000080004a8                USART1_Init
 .text.receivedUSARTData
                0x0000000008000590       0x50 build/main.o
                0x0000000008000590                receivedUSARTData
 .text.rxFullPacket
                0x00000000080005e0       0x4c build/main.o
                0x00000000080005e0                rxFullPacket
 .text.write    0x000000000800062c       0x54 build/main.o
                0x000000000800062c                write
 .text.clearAllUSARTIRQFlags
                0x0000000008000680       0xac build/main.o
                0x0000000008000680                clearAllUSARTIRQFlags
 .text.Reset_Handler
                0x000000000800072c       0x4c build/startup_stm32f0xx.o
                0x000000000800072c                Reset_Handler
 .text.Default_Handler
                0x0000000008000778        0x2 build/startup_stm32f0xx.o
                0x0000000008000778                TIM1_BRK_UP_TRG_COM_IRQHandler
                0x0000000008000778                ADC1_COMP_IRQHandler
                0x0000000008000778                PVD_IRQHandler
                0x0000000008000778                I2C1_IRQHandler
                0x0000000008000778                SPI1_IRQHandler
                0x0000000008000778                TIM6_DAC_IRQHandler
                0x0000000008000778                EXTI2_3_IRQHandler
                0x0000000008000778                I2C2_IRQHandler
                0x0000000008000778                TIM17_IRQHandler
                0x0000000008000778                RTC_IRQHandler
                0x0000000008000778                TIM16_IRQHandler
                0x0000000008000778                TIM3_IRQHandler
                0x0000000008000778                EXTI4_15_IRQHandler
                0x0000000008000778                RCC_IRQHandler
                0x0000000008000778                DMA1_Channel1_IRQHandler
                0x0000000008000778                Default_Handler
                0x0000000008000778                CEC_IRQHandler
                0x0000000008000778                TIM14_IRQHandler
                0x0000000008000778                DMA1_Channel4_5_IRQHandler
                0x0000000008000778                TIM15_IRQHandler
                0x0000000008000778                EXTI0_1_IRQHandler
                0x0000000008000778                SPI2_IRQHandler
                0x0000000008000778                TS_IRQHandler
                0x0000000008000778                WWDG_IRQHandler
                0x0000000008000778                TIM2_IRQHandler
                0x0000000008000778                DMA1_Channel2_3_IRQHandler
                0x0000000008000778                USART2_IRQHandler
                0x0000000008000778                FLASH_IRQHandler
                0x0000000008000778                TIM1_CC_IRQHandler
 *fill*         0x000000000800077a        0x2 
 .text.GPIO_Init
                0x000000000800077c       0xb0 lib/libstm32f0_periph.a(stm32f0xx_gpio.o)
                0x000000000800077c                GPIO_Init
 .text.GPIO_PinAFConfig
                0x000000000800082c       0x24 lib/libstm32f0_periph.a(stm32f0xx_gpio.o)
                0x000000000800082c                GPIO_PinAFConfig
 .text.NVIC_Init
                0x0000000008000850       0x50 lib/libstm32f0_periph.a(stm32f0xx_misc.o)
                0x0000000008000850                NVIC_Init
 .text.RCC_GetClocksFreq
                0x00000000080008a0      0x104 lib/libstm32f0_periph.a(stm32f0xx_rcc.o)
                0x00000000080008a0                RCC_GetClocksFreq
 .text.RCC_AHBPeriphClockCmd
                0x00000000080009a4       0x18 lib/libstm32f0_periph.a(stm32f0xx_rcc.o)
                0x00000000080009a4                RCC_AHBPeriphClockCmd
 .text.RCC_APB2PeriphClockCmd
                0x00000000080009bc       0x18 lib/libstm32f0_periph.a(stm32f0xx_rcc.o)
                0x00000000080009bc                RCC_APB2PeriphClockCmd
 .text.USART_Init
                0x00000000080009d4       0x9c lib/libstm32f0_periph.a(stm32f0xx_usart.o)
                0x00000000080009d4                USART_Init
 .text.USART_Cmd
                0x0000000008000a70       0x14 lib/libstm32f0_periph.a(stm32f0xx_usart.o)
                0x0000000008000a70                USART_Cmd
 .text.USART_SendData
                0x0000000008000a84        0x8 lib/libstm32f0_periph.a(stm32f0xx_usart.o)
                0x0000000008000a84                USART_SendData
 .text.USART_ReceiveData
                0x0000000008000a8c        0x8 lib/libstm32f0_periph.a(stm32f0xx_usart.o)
                0x0000000008000a8c                USART_ReceiveData
 .text.USART_ITConfig
                0x0000000008000a94       0x34 lib/libstm32f0_periph.a(stm32f0xx_usart.o)
                0x0000000008000a94                USART_ITConfig
 .text.USART_GetFlagStatus
                0x0000000008000ac8        0xc lib/libstm32f0_periph.a(stm32f0xx_usart.o)
                0x0000000008000ac8                USART_GetFlagStatus
 .text.USART_ClearFlag
                0x0000000008000ad4        0x4 lib/libstm32f0_periph.a(stm32f0xx_usart.o)
                0x0000000008000ad4                USART_ClearFlag
 .text.USART_GetITStatus
                0x0000000008000ad8       0x40 lib/libstm32f0_periph.a(stm32f0xx_usart.o)
                0x0000000008000ad8                USART_GetITStatus
 .text.memcpy   0x0000000008000b18       0x12 /Users/caseybrittain/gcc-arm-none-eabi-8-2018-q4-major/bin/../lib/gcc/arm-none-eabi/8.2.1/../../../../arm-none-eabi/lib/thumb/v6-m/nofp/libg_nano.a(lib_a-memcpy-stub.o)
                0x0000000008000b18                memcpy
 *(.glue_7)
 .glue_7        0x0000000008000b2a        0x0 linker stubs
 *(.glue_7t)
 .glue_7t       0x0000000008000b2a        0x0 linker stubs
 *(.eh_frame)
 *(.init)
 *(.fini)
                0x0000000008000b2c                . = ALIGN (0x4)
 *fill*         0x0000000008000b2a        0x2 
                0x0000000008000b2c                _etext = .

.vfp11_veneer   0x0000000008000b2c        0x0
 .vfp11_veneer  0x0000000008000b2c        0x0 linker stubs

.v4_bx          0x0000000008000b2c        0x0
 .v4_bx         0x0000000008000b2c        0x0 linker stubs

.iplt           0x0000000008000b2c        0x0
 .iplt          0x0000000008000b2c        0x0 build/system_stm32f0xx.o

.rodata         0x0000000008000b2c      0x104
                0x0000000008000b2c                . = ALIGN (0x4)
 *(.rodata)
 *(.rodata*)
 .rodata.EmptyBuffer
                0x0000000008000b2c      0x104 build/main.o
                0x0000000008000c30                . = ALIGN (0x4)

.rel.dyn        0x0000000008000c30        0x0
 .rel.iplt      0x0000000008000c30        0x0 build/system_stm32f0xx.o

.ARM.extab      0x0000000008000c30        0x0
                0x0000000008000c30                . = ALIGN (0x4)
 *(.ARM.extab* .gnu.linkonce.armextab.*)
                0x0000000008000c30                . = ALIGN (0x4)

.ARM            0x0000000008000c30        0x0
                0x0000000008000c30                . = ALIGN (0x4)
                0x0000000008000c30                __exidx_start = .
 *(.ARM.exidx*)
                0x0000000008000c30                __exidx_end = .
                0x0000000008000c30                . = ALIGN (0x4)

.preinit_array  0x0000000008000c30        0x0
                0x0000000008000c30                . = ALIGN (0x4)
                [!provide]                        PROVIDE (__preinit_array_start = .)
 *(.preinit_array*)
                [!provide]                        PROVIDE (__preinit_array_end = .)
                0x0000000008000c30                . = ALIGN (0x4)

.init_array     0x0000000008000c30        0x0
                0x0000000008000c30                . = ALIGN (0x4)
                [!provide]                        PROVIDE (__init_array_start = .)
 *(SORT_BY_NAME(.init_array.*))
 *(.init_array*)
                [!provide]                        PROVIDE (__init_array_end = .)
                0x0000000008000c30                . = ALIGN (0x4)

.fini_array     0x0000000008000c30        0x0
                0x0000000008000c30                . = ALIGN (0x4)
                [!provide]                        PROVIDE (__fini_array_start = .)
 *(SORT_BY_NAME(.fini_array.*))
 *(.fini_array*)
                [!provide]                        PROVIDE (__fini_array_end = .)
                0x0000000008000c30                . = ALIGN (0x4)
                0x0000000008000c30                _sidata = LOADADDR (.data)

.data           0x0000000020000000       0x10 load address 0x0000000008000c30
                0x0000000020000000                . = ALIGN (0x4)
                0x0000000020000000                _sdata = .
 *(.data)
 *(.data*)
 .data.APBAHBPrescTable
                0x0000000020000000       0x10 lib/libstm32f0_periph.a(stm32f0xx_rcc.o)
                0x0000000020000010                . = ALIGN (0x4)
                0x0000000020000010                _edata = .

.igot.plt       0x0000000020000010        0x0 load address 0x0000000008000c40
 .igot.plt      0x0000000020000010        0x0 build/system_stm32f0xx.o
                0x0000000020000010                . = ALIGN (0x4)

.bss            0x0000000020000010      0x10c load address 0x0000000008000c40
                0x0000000020000010                _sbss = .
                0x0000000020000010                __bss_start__ = _sbss
 *(.bss)
 *(.bss*)
 *(COMMON)
 COMMON         0x0000000020000010      0x10c build/main.o
                0x0000000020000010                multiplier
                0x0000000020000014                rxBuffer
                0x0000000020000118                _multiplier
                0x000000002000011c                . = ALIGN (0x4)
                0x000000002000011c                _ebss = .
                0x000000002000011c                __bss_end__ = _ebss

._user_heap_stack
                0x000000002000011c      0x404 load address 0x0000000008000c40
                0x0000000020000120                . = ALIGN (0x8)
 *fill*         0x000000002000011c        0x4 
                [!provide]                        PROVIDE (end = .)
                [!provide]                        PROVIDE (_end = .)
                0x0000000020000120                . = (. + _Min_Heap_Size)
                0x0000000020000520                . = (. + _Min_Stack_Size)
 *fill*         0x0000000020000120      0x400 
                0x0000000020000520                . = ALIGN (0x8)

/DISCARD/
 libc.a(*)
 libm.a(*)
 libgcc.a(*)

.ARM.attributes
                0x0000000000000000       0x2a
 *(.ARM.attributes)
 .ARM.attributes
                0x0000000000000000       0x2c build/system_stm32f0xx.o
 .ARM.attributes
                0x000000000000002c       0x2c build/stm32f0xx_it.o
 .ARM.attributes
                0x0000000000000058       0x2c build/main.o
 .ARM.attributes
                0x0000000000000084       0x21 build/startup_stm32f0xx.o
 .ARM.attributes
                0x00000000000000a5       0x2c lib/libstm32f0_periph.a(stm32f0xx_gpio.o)
 .ARM.attributes
                0x00000000000000d1       0x2c lib/libstm32f0_periph.a(stm32f0xx_misc.o)
 .ARM.attributes
                0x00000000000000fd       0x2c lib/libstm32f0_periph.a(stm32f0xx_rcc.o)
 .ARM.attributes
                0x0000000000000129       0x2c lib/libstm32f0_periph.a(stm32f0xx_usart.o)
 .ARM.attributes
                0x0000000000000155       0x1e /Users/caseybrittain/gcc-arm-none-eabi-8-2018-q4-major/bin/../lib/gcc/arm-none-eabi/8.2.1/thumb/v6-m/nofp/libgcc.a(_udivsi3.o)
 .ARM.attributes
                0x0000000000000173       0x1e /Users/caseybrittain/gcc-arm-none-eabi-8-2018-q4-major/bin/../lib/gcc/arm-none-eabi/8.2.1/thumb/v6-m/nofp/libgcc.a(_dvmd_tls.o)
 .ARM.attributes
                0x0000000000000191       0x2c /Users/caseybrittain/gcc-arm-none-eabi-8-2018-q4-major/bin/../lib/gcc/arm-none-eabi/8.2.1/../../../../arm-none-eabi/lib/thumb/v6-m/nofp/libg_nano.a(lib_a-memcpy-stub.o)
OUTPUT(build/blink.elf elf32-littlearm)

.debug_info     0x0000000000000000     0x3dc8
 .debug_info    0x0000000000000000      0x32f build/system_stm32f0xx.o
 .debug_info    0x000000000000032f       0xea build/stm32f0xx_it.o
 .debug_info    0x0000000000000419     0x1324 build/main.o
 .debug_info    0x000000000000173d       0x22 build/startup_stm32f0xx.o
 .debug_info    0x000000000000175f      0x77f lib/libstm32f0_periph.a(stm32f0xx_gpio.o)
 .debug_info    0x0000000000001ede      0x398 lib/libstm32f0_periph.a(stm32f0xx_misc.o)
 .debug_info    0x0000000000002276      0xb4f lib/libstm32f0_periph.a(stm32f0xx_rcc.o)
 .debug_info    0x0000000000002dc5     0x1003 lib/libstm32f0_periph.a(stm32f0xx_usart.o)

.debug_abbrev   0x0000000000000000      0xdf8
 .debug_abbrev  0x0000000000000000      0x176 build/system_stm32f0xx.o
 .debug_abbrev  0x0000000000000176       0x66 build/stm32f0xx_it.o
 .debug_abbrev  0x00000000000001dc      0x356 build/main.o
 .debug_abbrev  0x0000000000000532       0x12 build/startup_stm32f0xx.o
 .debug_abbrev  0x0000000000000544      0x221 lib/libstm32f0_periph.a(stm32f0xx_gpio.o)
 .debug_abbrev  0x0000000000000765      0x177 lib/libstm32f0_periph.a(stm32f0xx_misc.o)
 .debug_abbrev  0x00000000000008dc      0x30d lib/libstm32f0_periph.a(stm32f0xx_rcc.o)
 .debug_abbrev  0x0000000000000be9      0x20f lib/libstm32f0_periph.a(stm32f0xx_usart.o)

.debug_aranges  0x0000000000000000      0x4c0
 .debug_aranges
                0x0000000000000000       0x30 build/system_stm32f0xx.o
 .debug_aranges
                0x0000000000000030       0x40 build/stm32f0xx_it.o
 .debug_aranges
                0x0000000000000070       0x88 build/main.o
 .debug_aranges
                0x00000000000000f8       0x28 build/startup_stm32f0xx.o
 .debug_aranges
                0x0000000000000120       0x80 lib/libstm32f0_periph.a(stm32f0xx_gpio.o)
 .debug_aranges
                0x00000000000001a0       0x30 lib/libstm32f0_periph.a(stm32f0xx_misc.o)
 .debug_aranges
                0x00000000000001d0      0x150 lib/libstm32f0_periph.a(stm32f0xx_rcc.o)
 .debug_aranges
                0x0000000000000320      0x1a0 lib/libstm32f0_periph.a(stm32f0xx_usart.o)

.debug_ranges   0x0000000000000000      0x490
 .debug_ranges  0x0000000000000000       0x20 build/system_stm32f0xx.o
 .debug_ranges  0x0000000000000020       0x30 build/stm32f0xx_it.o
 .debug_ranges  0x0000000000000050       0x78 build/main.o
 .debug_ranges  0x00000000000000c8       0x20 build/startup_stm32f0xx.o
 .debug_ranges  0x00000000000000e8       0x70 lib/libstm32f0_periph.a(stm32f0xx_gpio.o)
 .debug_ranges  0x0000000000000158       0x20 lib/libstm32f0_periph.a(stm32f0xx_misc.o)
 .debug_ranges  0x0000000000000178      0x188 lib/libstm32f0_periph.a(stm32f0xx_rcc.o)
 .debug_ranges  0x0000000000000300      0x190 lib/libstm32f0_periph.a(stm32f0xx_usart.o)

.debug_line     0x0000000000000000     0x28bb
 .debug_line    0x0000000000000000      0x2a5 build/system_stm32f0xx.o
 .debug_line    0x00000000000002a5      0x199 build/stm32f0xx_it.o
 .debug_line    0x000000000000043e      0x53d build/main.o
 .debug_line    0x000000000000097b       0x79 build/startup_stm32f0xx.o
 .debug_line    0x00000000000009f4      0x485 lib/libstm32f0_periph.a(stm32f0xx_gpio.o)
 .debug_line    0x0000000000000e79      0x210 lib/libstm32f0_periph.a(stm32f0xx_misc.o)
 .debug_line    0x0000000000001089      0xbcc lib/libstm32f0_periph.a(stm32f0xx_rcc.o)
 .debug_line    0x0000000000001c55      0xc66 lib/libstm32f0_periph.a(stm32f0xx_usart.o)

.debug_str      0x0000000000000000     0x1b3e
 .debug_str     0x0000000000000000      0x251 build/system_stm32f0xx.o
                                        0x2b8 (size before relaxing)
 .debug_str     0x0000000000000251       0x5c build/stm32f0xx_it.o
                                        0x1e1 (size before relaxing)
 .debug_str     0x00000000000002ad      0xad5 build/main.o
                                        0xccc (size before relaxing)
 .debug_str     0x0000000000000d82       0x27 build/startup_stm32f0xx.o
                                         0x44 (size before relaxing)
 .debug_str     0x0000000000000da9      0x27e lib/libstm32f0_periph.a(stm32f0xx_gpio.o)
                                        0x4d6 (size before relaxing)
 .debug_str     0x0000000000001027       0xd6 lib/libstm32f0_periph.a(stm32f0xx_misc.o)
                                        0x335 (size before relaxing)
 .debug_str     0x00000000000010fd      0x402 lib/libstm32f0_periph.a(stm32f0xx_rcc.o)
                                        0x759 (size before relaxing)
 .debug_str     0x00000000000014ff      0x63f lib/libstm32f0_periph.a(stm32f0xx_usart.o)
                                        0x9c7 (size before relaxing)

.comment        0x0000000000000000       0x75
 .comment       0x0000000000000000       0x75 build/system_stm32f0xx.o
                                         0x76 (size before relaxing)
 .comment       0x0000000000000075       0x76 build/stm32f0xx_it.o
 .comment       0x0000000000000075       0x76 build/main.o
 .comment       0x0000000000000075       0x76 lib/libstm32f0_periph.a(stm32f0xx_gpio.o)
 .comment       0x0000000000000075       0x76 lib/libstm32f0_periph.a(stm32f0xx_misc.o)
 .comment       0x0000000000000075       0x76 lib/libstm32f0_periph.a(stm32f0xx_rcc.o)
 .comment       0x0000000000000075       0x76 lib/libstm32f0_periph.a(stm32f0xx_usart.o)

.debug_frame    0x0000000000000000      0xa6c
 .debug_frame   0x0000000000000000       0x6c build/system_stm32f0xx.o
 .debug_frame   0x000000000000006c       0x9c build/stm32f0xx_it.o
 .debug_frame   0x0000000000000108      0x1d8 build/main.o
 .debug_frame   0x00000000000002e0      0x110 lib/libstm32f0_periph.a(stm32f0xx_gpio.o)
 .debug_frame   0x00000000000003f0       0x50 lib/libstm32f0_periph.a(stm32f0xx_misc.o)
 .debug_frame   0x0000000000000440      0x298 lib/libstm32f0_periph.a(stm32f0xx_rcc.o)
 .debug_frame   0x00000000000006d8      0x34c lib/libstm32f0_periph.a(stm32f0xx_usart.o)
 .debug_frame   0x0000000000000a24       0x20 /Users/caseybrittain/gcc-arm-none-eabi-8-2018-q4-major/bin/../lib/gcc/arm-none-eabi/8.2.1/thumb/v6-m/nofp/libgcc.a(_udivsi3.o)
 .debug_frame   0x0000000000000a44       0x28 /Users/caseybrittain/gcc-arm-none-eabi-8-2018-q4-major/bin/../lib/gcc/arm-none-eabi/8.2.1/../../../../arm-none-eabi/lib/thumb/v6-m/nofp/libg_nano.a(lib_a-memcpy-stub.o)

.debug_loc      0x0000000000000000     0x1614
 .debug_loc     0x0000000000000000      0x3fe lib/libstm32f0_periph.a(stm32f0xx_gpio.o)
 .debug_loc     0x00000000000003fe       0xf5 lib/libstm32f0_periph.a(stm32f0xx_misc.o)
 .debug_loc     0x00000000000004f3      0x836 lib/libstm32f0_periph.a(stm32f0xx_rcc.o)
 .debug_loc     0x0000000000000d29      0x8eb lib/libstm32f0_periph.a(stm32f0xx_usart.o)
